; Function Attrs: nounwind uwtable
define dso_local noundef ptr @pq_getmsgrawstring(ptr noundef captures(none) %0) local_unnamed_addr #0 {
  %2 = load ptr, ptr %0, align 8
  %3 = getelementptr inbounds nuw i8, ptr %0, i64 16
  %4 = load i32, ptr %3, align 8
  %5 = sext i32 %4 to i64
  %6 = getelementptr inbounds i8, ptr %2, i64 %5
  %7 = tail call i64 @strlen(ptr noundef nonnull dereferenceable(1) %6) #10
  %8 = trunc i64 %7 to i32
  %9 = add i32 %4, %8
  %10 = getelementptr inbounds nuw i8, ptr %0, i64 8
  %11 = load i32, ptr %10, align 8
  %.not = icmp slt i32 %9, %11
  br i1 %.not, label %16, label %12

12:                                               ; preds = %1
  %13 = tail call zeroext i1 @errstart_cold(i32 noundef 21, ptr noundef null) #11
  tail call void @llvm.assume(i1 %13)
  %14 = tail call i32 @errcode(i32 noundef 16908800) #9
  %15 = tail call i32 (ptr, ...) @errmsg(ptr noundef nonnull @.str.4) #9
  tail call void @errfinish(ptr noundef nonnull @.str.1, i32 noundef 624, ptr noundef nonnull @__func__.pq_getmsgrawstring) #9
  unreachable

16:                                               ; preds = %1
  %17 = add nsw i32 %9, 1
  store i32 %17, ptr %3, align 8
  ret ptr %6
}